target datalayout = "e-m:e-p270:32:32-p271:32:32-p272:64:64-i64:64-i128:128-f80:128-n8:16:32:64-S128"
target triple = "x86_64-pc-linux-gnu"

%struct._zend_refcounted_h = type { i32, %union.anon }
%union.anon = type { i32 }
%struct._zend_string = type { %struct._zend_refcounted_h, i64, i64, [1 x i8] }

@.str.290 = private unnamed_addr constant [3 x i8] c"\0D\0A\00", align 1

; Function Attrs: nounwind uwtable
define internal i32 @OnUpdateDefaultMimeTye(ptr noundef %0, ptr noundef %1, ptr noundef %2, ptr noundef %3, ptr noundef %4, i32 noundef %5) #1 {
  %7 = alloca i32, align 4
  %8 = alloca ptr, align 8
  %9 = alloca ptr, align 8
  %10 = alloca ptr, align 8
  %11 = alloca ptr, align 8
  %12 = alloca ptr, align 8
  %13 = alloca i32, align 4
  store ptr %0, ptr %8, align 8, !tbaa !243
  store ptr %1, ptr %9, align 8, !tbaa !54
  store ptr %2, ptr %10, align 8, !tbaa !56
  store ptr %3, ptr %11, align 8, !tbaa !56
  store ptr %4, ptr %12, align 8, !tbaa !56
  store i32 %5, ptr %13, align 4, !tbaa !50
  %14 = load ptr, ptr %9, align 8, !tbaa !54
  %15 = getelementptr inbounds nuw %struct._zend_string, ptr %14, i32 0, i32 3
  %16 = getelementptr inbounds [1 x i8], ptr %15, i64 0, i64 0
  %17 = load ptr, ptr %9, align 8, !tbaa !54
  %18 = getelementptr inbounds nuw %struct._zend_string, ptr %17, i32 0, i32 2
  %19 = load i64, ptr %18, align 8, !tbaa !60
  %20 = call ptr @memchr(ptr noundef %16, i32 noundef 0, i64 noundef %19) #19
  %21 = icmp ne ptr %20, null
  br i1 %21, label %28, label %22

22:                                               ; preds = %6
  %23 = load ptr, ptr %9, align 8, !tbaa !54
  %24 = getelementptr inbounds nuw %struct._zend_string, ptr %23, i32 0, i32 3
  %25 = getelementptr inbounds [1 x i8], ptr %24, i64 0, i64 0
  %26 = call ptr @strpbrk(ptr noundef %25, ptr noundef @.str.290) #19
  %27 = icmp ne ptr %26, null
  br i1 %27, label %28, label %29

28:                                               ; preds = %22, %6
  store i32 -1, ptr %7, align 4
  br label %37

29:                                               ; preds = %22
  %30 = load ptr, ptr %8, align 8, !tbaa !243
  %31 = load ptr, ptr %9, align 8, !tbaa !54
  %32 = load ptr, ptr %10, align 8, !tbaa !56
  %33 = load ptr, ptr %11, align 8, !tbaa !56
  %34 = load ptr, ptr %12, align 8, !tbaa !56
  %35 = load i32, ptr %13, align 4, !tbaa !50
  %36 = call i32 @OnUpdateString(ptr noundef %30, ptr noundef %31, ptr noundef %32, ptr noundef %33, ptr noundef %34, i32 noundef %35)
  store i32 %36, ptr %7, align 4
  br label %37

37:                                               ; preds = %29, %28
  %38 = load i32, ptr %7, align 4
  ret i32 %38
}