; Function Attrs: nounwind uwtable
define internal i32 @OnUpdateDefaultMimeTye(ptr noundef %0, ptr noundef %1, ptr noundef %2, ptr noundef %3, ptr noundef %4, i32 noundef %5) #2 {
  %7 = getelementptr inbounds nuw i8, ptr %1, i64 24
  %8 = getelementptr inbounds nuw i8, ptr %1, i64 16
  %9 = load i64, ptr %8, align 8, !tbaa !52
  %10 = tail call ptr @memchr(ptr noundef nonnull %7, i32 noundef 0, i64 noundef %9) #29
  %.not = icmp eq ptr %10, null
  br i1 %.not, label %11, label %15

11:                                               ; preds = %6
  %12 = tail call ptr @strpbrk(ptr noundef nonnull %7, ptr noundef nonnull @.str.290) #29
  %.not9 = icmp eq ptr %12, null
  br i1 %.not9, label %13, label %15

13:                                               ; preds = %11
  %14 = tail call i32 @OnUpdateString(ptr noundef %0, ptr noundef nonnull %1, ptr noundef %2, ptr noundef %3, ptr noundef %4, i32 noundef %5) #28
  br label %15

15:                                               ; preds = %6, %11, %13
  %.0 = phi i32 [ %14, %13 ], [ -1, %11 ], [ -1, %6 ]
  ret i32 %.0
}